target datalayout = "e-m:e-p270:32:32-p271:32:32-p272:64:64-i64:64-i128:128-f80:128-n8:16:32:64-S128"
target triple = "x86_64-pc-linux-gnu"

%struct.burst_buffer_info_msg_t = type { ptr, i32 }
%struct.burst_buffer_info_t = type { ptr, ptr, ptr, ptr, ptr, i32, ptr, ptr, i64, i32, ptr, ptr, i32, i32, i32, i32, ptr, ptr, ptr, ptr, i64, i64, i64, i32, i32, ptr, i32, ptr }

@.str = private unnamed_addr constant [38 x i8] c"No burst buffer information available\00", align 1

; Function Attrs: nounwind uwtable
define dso_local void @slurm_print_burst_buffer_info_msg(ptr noundef %0, ptr noundef %1, i32 noundef %2, i32 noundef %3) #0 {
  %5 = alloca ptr, align 8
  %6 = alloca ptr, align 8
  %7 = alloca i32, align 4
  %8 = alloca i32, align 4
  %9 = alloca i32, align 4
  %10 = alloca ptr, align 8
  %11 = alloca i32, align 4
  store ptr %0, ptr %5, align 8
  store ptr %1, ptr %6, align 8
  store i32 %2, ptr %7, align 4
  store i32 %3, ptr %8, align 4
  call void @llvm.lifetime.start.p0(i64 4, ptr %9) #5
  call void @llvm.lifetime.start.p0(i64 8, ptr %10) #5
  %12 = load ptr, ptr %6, align 8
  %13 = getelementptr inbounds nuw %struct.burst_buffer_info_msg_t, ptr %12, i32 0, i32 1
  %14 = load i32, ptr %13, align 8
  %15 = icmp eq i32 %14, 0
  br i1 %15, label %16, label %18

16:                                               ; preds = %4
  %17 = call i32 (ptr, ...) @error(ptr noundef @.str)
  store i32 1, ptr %11, align 4
  br label %39

18:                                               ; preds = %4
  store i32 0, ptr %9, align 4
  %19 = load ptr, ptr %6, align 8
  %20 = getelementptr inbounds nuw %struct.burst_buffer_info_msg_t, ptr %19, i32 0, i32 0
  %21 = load ptr, ptr %20, align 8
  store ptr %21, ptr %10, align 8
  br label %22

22:                                               ; preds = %33, %18
  %23 = load i32, ptr %9, align 4
  %24 = load ptr, ptr %6, align 8
  %25 = getelementptr inbounds nuw %struct.burst_buffer_info_msg_t, ptr %24, i32 0, i32 1
  %26 = load i32, ptr %25, align 8
  %27 = icmp ult i32 %23, %26
  br i1 %27, label %28, label %38

28:                                               ; preds = %22
  %29 = load ptr, ptr %5, align 8
  %30 = load ptr, ptr %10, align 8
  %31 = load i32, ptr %7, align 4
  %32 = load i32, ptr %8, align 4
  call void @slurm_print_burst_buffer_record(ptr noundef %29, ptr noundef %30, i32 noundef %31, i32 noundef %32)
  br label %33

33:                                               ; preds = %28
  %34 = load i32, ptr %9, align 4
  %35 = add nsw i32 %34, 1
  store i32 %35, ptr %9, align 4
  %36 = load ptr, ptr %10, align 8
  %37 = getelementptr inbounds nuw %struct.burst_buffer_info_t, ptr %36, i32 1
  store ptr %37, ptr %10, align 8
  br label %22, !llvm.loop !8

38:                                               ; preds = %22
  store i32 0, ptr %11, align 4
  br label %39

39:                                               ; preds = %38, %16
  call void @llvm.lifetime.end.p0(i64 8, ptr %10) #5
  call void @llvm.lifetime.end.p0(i64 4, ptr %9) #5
  %40 = load i32, ptr %11, align 4
  switch i32 %40, label %42 [
    i32 0, label %41
    i32 1, label %41
  ]

41:                                               ; preds = %39, %39
  ret void

42:                                               ; preds = %39
  unreachable
}