; Function Attrs: nounwind uwtable
define dso_local void @slurm_print_burst_buffer_info_msg(ptr noundef captures(none) %0, ptr noundef readonly captures(none) %1, i32 noundef %2, i32 noundef %3) local_unnamed_addr #0 {
  %5 = getelementptr inbounds nuw i8, ptr %1, i64 8
  %6 = load i32, ptr %5, align 8
  %7 = icmp eq i32 %6, 0
  br i1 %7, label %8, label %.lr.ph.preheader

8:                                                ; preds = %4
  %9 = tail call i32 (ptr, ...) @error(ptr noundef nonnull @.str) #9
  br label %.loopexit

.lr.ph.preheader:                                 ; preds = %4
  %10 = load ptr, ptr %1, align 8
  br label %.lr.ph

.lr.ph:                                           ; preds = %.lr.ph.preheader, %.lr.ph
  %.011 = phi ptr [ %12, %.lr.ph ], [ %10, %.lr.ph.preheader ]
  %.0910 = phi i32 [ %11, %.lr.ph ], [ 0, %.lr.ph.preheader ]
  tail call void @slurm_print_burst_buffer_record(ptr noundef %0, ptr noundef %.011, i32 noundef %2, i32 noundef %3)
  %11 = add nuw nsw i32 %.0910, 1
  %12 = getelementptr inbounds nuw i8, ptr %.011, i64 200
  %13 = load i32, ptr %5, align 8
  %14 = icmp ult i32 %11, %13
  br i1 %14, label %.lr.ph, label %.loopexit, !llvm.loop !8

.loopexit:                                        ; preds = %.lr.ph, %8
  ret void
}